target datalayout = "e-m:e-p270:32:32-p271:32:32-p272:64:64-i64:64-i128:128-f80:128-n8:16:32:64-S128"
target triple = "x86_64-pc-linux-gnu"

%class.Metadata = type { ptr }
%class.AccessFlags = type { i32 }
%class.Method = type { %class.Metadata, ptr, ptr, ptr, ptr, %class.AccessFlags, i32, %class.MethodFlags, i16, %class.JfrTraceFlag, ptr, ptr, ptr, ptr }
%class.MethodFlags = type { i32 }
%class.JfrTraceFlag = type { i16 }
%class.Mutex = type { ptr, %class.PlatformMonitor, ptr }
%class.PlatformMonitor = type { %class.PlatformMutex, %union.pthread_cond_t }
%class.PlatformMutex = type { %union.pthread_mutex_t }
%union.pthread_mutex_t = type { %struct.__pthread_mutex_s }
%struct.__pthread_mutex_s = type { i32, i32, i32, i32, i32, i16, i16, %struct.__pthread_internal_list }
%struct.__pthread_internal_list = type { ptr, ptr }
%union.pthread_cond_t = type { %struct.__pthread_cond_s }
%struct.__pthread_cond_s = type { %union.__atomic_wide_counter, %union.__atomic_wide_counter, [2 x i32], [2 x i32], i32, i32, [2 x i32] }
%union.__atomic_wide_counter = type { i64 }
%class.MethodData = type { %class.Metadata, ptr, i32, i32, %class.Mutex, %"class.MethodData::CompilerCounters", i64, i64, i64, i64, i32, %class.InvocationCounter, %class.InvocationCounter, i32, i32, i32, i32, i32, i16, i16, i32, ptr, i32, i32, i32, i32, [1 x i64] }
%"class.MethodData::CompilerCounters" = type { i32, i32, i32, %union.anon.2 }
%union.anon.2 = type { i64, [56 x i8] }
%class.InvocationCounter = type { i32 }

; Function Attrs: mustprogress nounwind uwtable
define linkonce_odr hidden noundef i32 @_ZNK10MethodData8dp_to_diEPh(ptr noundef nonnull align 8 dereferenceable(312) %0, ptr noundef %1) #1 comdat align 2 {
  %3 = alloca ptr, align 8
  %4 = alloca ptr, align 8
  store ptr %0, ptr %3, align 8
  store ptr %1, ptr %4, align 8
  %5 = load ptr, ptr %3, align 8
  %6 = load ptr, ptr %4, align 8
  %7 = getelementptr inbounds %class.MethodData, ptr %5, i32 0, i32 26
  %8 = getelementptr inbounds [1 x i64], ptr %7, i64 0, i64 0
  %9 = ptrtoint ptr %6 to i64
  %10 = ptrtoint ptr %8 to i64
  %11 = sub i64 %9, %10
  %12 = trunc i64 %11 to i32
  ret i32 %12
}

; Function Attrs: mustprogress nounwind uwtable
define linkonce_odr hidden noundef i32 @_ZN10MethodData9bci_to_diEi(ptr noundef nonnull align 8 dereferenceable(312) %0, i32 noundef %1) #1 comdat align 2 {
  %3 = alloca ptr, align 8
  %4 = alloca i32, align 4
  store ptr %0, ptr %3, align 8
  store i32 %1, ptr %4, align 4
  %5 = load ptr, ptr %3, align 8
  %6 = load i32, ptr %4, align 4
  %7 = call noundef ptr @_ZN10MethodData9bci_to_dpEi(ptr noundef nonnull align 8 dereferenceable(312) %5, i32 noundef %6)
  %8 = call noundef i32 @_ZNK10MethodData8dp_to_diEPh(ptr noundef nonnull align 8 dereferenceable(312) %5, ptr noundef %7)
  ret i32 %8
}

; Function Attrs: mustprogress nounwind uwtable
define linkonce_odr hidden noundef ptr @_ZNK6Method11method_dataEv(ptr noundef nonnull align 8 dereferenceable(88) %0) #1 comdat align 2 {
  %2 = alloca ptr, align 8
  store ptr %0, ptr %2, align 8
  %3 = load ptr, ptr %2, align 8
  %4 = getelementptr inbounds %class.Method, ptr %3, i32 0, i32 2
  %5 = load ptr, ptr %4, align 8
  ret ptr %5
}

; Function Attrs: mustprogress nounwind uwtable
define linkonce_odr hidden void @_ZN2os22verify_stack_alignmentEv() #1 comdat align 2 {
  ret void
}

; Function Attrs: mustprogress nounwind uwtable
define hidden noundef i32 @_ZN18InterpreterRuntime9bcp_to_diEP6MethodPh(ptr noundef %0, ptr noundef %1) #1 align 2 {
  %3 = alloca i32, align 4
  %4 = alloca ptr, align 8
  %5 = alloca ptr, align 8
  %6 = alloca i32, align 4
  %7 = alloca ptr, align 8
  store ptr %0, ptr %4, align 8
  store ptr %1, ptr %5, align 8
  call void @_ZN2os22verify_stack_alignmentEv()
  %8 = load ptr, ptr %4, align 8
  %9 = load ptr, ptr %5, align 8
  %10 = call noundef i32 @_ZNK6Method8bci_fromEPh(ptr noundef nonnull align 8 dereferenceable(88) %8, ptr noundef %9)
  store i32 %10, ptr %6, align 4
  %11 = load ptr, ptr %4, align 8
  %12 = call noundef ptr @_ZNK6Method11method_dataEv(ptr noundef nonnull align 8 dereferenceable(88) %11)
  store ptr %12, ptr %7, align 8
  %13 = load ptr, ptr %7, align 8
  %14 = icmp eq ptr %13, null
  br i1 %14, label %15, label %16

15:                                               ; preds = %2
  store i32 0, ptr %3, align 4
  br label %20

16:                                               ; preds = %2
  %17 = load ptr, ptr %7, align 8
  %18 = load i32, ptr %6, align 4
  %19 = call noundef i32 @_ZN10MethodData9bci_to_diEi(ptr noundef nonnull align 8 dereferenceable(312) %17, i32 noundef %18)
  store i32 %19, ptr %3, align 4
  br label %20

20:                                               ; preds = %16, %15
  %21 = load i32, ptr %3, align 4
  ret i32 %21
}