; Function Attrs: mustprogress nounwind uwtable
define hidden noundef i32 @_ZN18InterpreterRuntime9bcp_to_diEP6MethodPh(ptr noundef nonnull %0, ptr noundef %1) local_unnamed_addr #0 align 2 {
  %3 = tail call noundef i32 @_ZNK6Method8bci_fromEPh(ptr noundef nonnull align 8 dereferenceable(88) %0, ptr noundef %1) #13
  %4 = getelementptr inbounds i8, ptr %0, i64 16
  %5 = load ptr, ptr %4, align 8
  %6 = icmp eq ptr %5, null
  br i1 %6, label %14, label %7

7:                                                ; preds = %2
  %8 = tail call noundef ptr @_ZN10MethodData9bci_to_dpEi(ptr noundef nonnull align 8 dereferenceable(312) %5, i32 noundef %3) #13
  %9 = getelementptr inbounds i8, ptr %5, i64 304
  %10 = ptrtoint ptr %8 to i64
  %11 = ptrtoint ptr %9 to i64
  %12 = sub i64 %10, %11
  %13 = trunc i64 %12 to i32
  br label %14

14:                                               ; preds = %2, %7
  %.0 = phi i32 [ %13, %7 ], [ 0, %2 ]
  ret i32 %.0
}